target datalayout = "e-m:e-p270:32:32-p271:32:32-p272:64:64-i64:64-i128:128-f80:128-n8:16:32:64-S128"
target triple = "x86_64-pc-linux-gnu"

%struct._object = type { i64, ptr }
%"struct.nanobind::dlpack::dtype" = type { i8, i8, i16 }
%"struct.nanobind::detail::managed_dltensor" = type { %"struct.nanobind::dlpack::dltensor", ptr, ptr }
%"struct.nanobind::dlpack::dltensor" = type { ptr, %"struct.nanobind::dlpack::device", i32, %"struct.nanobind::dlpack::dtype", ptr, ptr, i64 }
%"struct.nanobind::dlpack::device" = type { i32, i32 }
%"struct.nanobind::detail::ndarray_handle" = type <{ ptr, %"struct.std::atomic", ptr, ptr, i8, i8, i8, i8, [4 x i8] }>
%"struct.std::atomic" = type { %"struct.std::__atomic_base" }
%"struct.std::__atomic_base" = type { i64 }
%"struct.nanobind::gil_scoped_acquire" = type { i32 }

; Function Attrs: inlinehint mustprogress uwtable
define internal void @_ZL10_Py_DECREFP7_object(ptr noundef %0) #8 {
  %2 = alloca ptr, align 8
  store ptr %0, ptr %2, align 8
  %3 = load ptr, ptr %2, align 8
  %4 = getelementptr inbounds nuw %struct._object, ptr %3, i32 0, i32 0
  %5 = load i64, ptr %4, align 8
  %6 = add nsw i64 %5, -1
  store i64 %6, ptr %4, align 8
  %7 = icmp ne i64 %6, 0
  br i1 %7, label %8, label %9

8:                                                ; preds = %1
  br label %11

9:                                                ; preds = %1
  %10 = load ptr, ptr %2, align 8
  call void @_Py_Dealloc(ptr noundef %10)
  br label %11

11:                                               ; preds = %9, %8
  ret void
}

; Function Attrs: alwaysinline mustprogress nounwind uwtable
define linkonce_odr noundef i64 @_ZNSt13__atomic_baseImE9fetch_subEmSt12memory_order(ptr noundef nonnull align 8 dereferenceable(8) %0, i64 noundef %1, i32 noundef %2) #11 comdat align 2 {
  %4 = alloca ptr, align 8
  %5 = alloca i64, align 8
  %6 = alloca i32, align 4
  %7 = alloca i64, align 8
  %8 = alloca i64, align 8
  store ptr %0, ptr %4, align 8
  store i64 %1, ptr %5, align 8
  store i32 %2, ptr %6, align 4
  %9 = load ptr, ptr %4, align 8
  %10 = getelementptr inbounds nuw %"struct.std::__atomic_base", ptr %9, i32 0, i32 0
  %11 = load i32, ptr %6, align 4
  %12 = load i64, ptr %5, align 8
  store i64 %12, ptr %7, align 8
  switch i32 %11, label %13 [
    i32 1, label %16
    i32 2, label %16
    i32 3, label %19
    i32 4, label %22
    i32 5, label %25
  ]

13:                                               ; preds = %3
  %14 = load i64, ptr %7, align 8
  %15 = atomicrmw sub ptr %10, i64 %14 monotonic, align 8
  store i64 %15, ptr %8, align 8
  br label %28

16:                                               ; preds = %3, %3
  %17 = load i64, ptr %7, align 8
  %18 = atomicrmw sub ptr %10, i64 %17 acquire, align 8
  store i64 %18, ptr %8, align 8
  br label %28

19:                                               ; preds = %3
  %20 = load i64, ptr %7, align 8
  %21 = atomicrmw sub ptr %10, i64 %20 release, align 8
  store i64 %21, ptr %8, align 8
  br label %28

22:                                               ; preds = %3
  %23 = load i64, ptr %7, align 8
  %24 = atomicrmw sub ptr %10, i64 %23 acq_rel, align 8
  store i64 %24, ptr %8, align 8
  br label %28

25:                                               ; preds = %3
  %26 = load i64, ptr %7, align 8
  %27 = atomicrmw sub ptr %10, i64 %26 seq_cst, align 8
  store i64 %27, ptr %8, align 8
  br label %28

28:                                               ; preds = %25, %22, %19, %16, %13
  %29 = load i64, ptr %8, align 8
  ret i64 %29
}

; Function Attrs: mustprogress nounwind uwtable
define linkonce_odr hidden void @_ZN8nanobind18gil_scoped_acquireD2Ev(ptr noundef nonnull align 4 dereferenceable(4) %0) unnamed_addr #0 comdat align 2 personality ptr @__gxx_personality_v0 {
  %2 = alloca ptr, align 8
  store ptr %0, ptr %2, align 8
  %3 = load ptr, ptr %2, align 8
  %4 = getelementptr inbounds nuw %"struct.nanobind::gil_scoped_acquire", ptr %3, i32 0, i32 0
  %5 = load i32, ptr %4, align 4
  invoke void @PyGILState_Release(i32 noundef %5)
          to label %6 unwind label %7

6:                                                ; preds = %1
  ret void

7:                                                ; preds = %1
  %8 = landingpad { ptr, i32 }
          catch ptr null
  %9 = extractvalue { ptr, i32 } %8, 0
  call void @__clang_call_terminate(ptr %9) #18
  unreachable
}

; Function Attrs: inlinehint mustprogress uwtable
define internal void @_ZL11_Py_XDECREFP7_object(ptr noundef %0) #8 {
  %2 = alloca ptr, align 8
  store ptr %0, ptr %2, align 8
  %3 = load ptr, ptr %2, align 8
  %4 = icmp ne ptr %3, null
  br i1 %4, label %5, label %7

5:                                                ; preds = %1
  %6 = load ptr, ptr %2, align 8
  call void @_ZL10_Py_DECREFP7_object(ptr noundef %6)
  br label %7

7:                                                ; preds = %5, %1
  ret void
}

; Function Attrs: mustprogress nounwind uwtable
define linkonce_odr hidden void @_ZN8nanobind18gil_scoped_acquireC2Ev(ptr noundef nonnull align 4 dereferenceable(4) %0) unnamed_addr #0 comdat align 2 personality ptr @__gxx_personality_v0 {
  %2 = alloca ptr, align 8
  store ptr %0, ptr %2, align 8
  %3 = load ptr, ptr %2, align 8
  %4 = getelementptr inbounds nuw %"struct.nanobind::gil_scoped_acquire", ptr %3, i32 0, i32 0
  %5 = invoke i32 @PyGILState_Ensure()
          to label %6 unwind label %7

6:                                                ; preds = %1
  store i32 %5, ptr %4, align 4
  ret void

7:                                                ; preds = %1
  %8 = landingpad { ptr, i32 }
          catch ptr null
  %9 = extractvalue { ptr, i32 } %8, 0
  call void @__clang_call_terminate(ptr %9) #18
  unreachable
}

; Function Attrs: mustprogress nounwind uwtable
define linkonce_odr noundef i64 @_ZNSt13__atomic_baseImEmmEi(ptr noundef nonnull align 8 dereferenceable(8) %0, i32 noundef %1) #0 comdat align 2 {
  %3 = alloca ptr, align 8
  %4 = alloca i32, align 4
  store ptr %0, ptr %3, align 8
  store i32 %1, ptr %4, align 4
  %5 = load ptr, ptr %3, align 8
  %6 = call noundef i64 @_ZNSt13__atomic_baseImE9fetch_subEmSt12memory_order(ptr noundef nonnull align 8 dereferenceable(8) %5, i64 noundef 1, i32 noundef 5) #17
  ret i64 %6
}

; Function Attrs: mustprogress nounwind uwtable
define void @_ZN8nanobind6detail15ndarray_dec_refEPNS0_14ndarray_handleE(ptr noundef %0) #0 personality ptr @__gxx_personality_v0 {
  %2 = alloca ptr, align 8
  %3 = alloca i64, align 8
  %4 = alloca %"struct.nanobind::gil_scoped_acquire", align 4
  %5 = alloca ptr, align 8
  store ptr %0, ptr %2, align 8
  %6 = load ptr, ptr %2, align 8
  %7 = icmp ne ptr %6, null
  br i1 %7, label %9, label %8

8:                                                ; preds = %1
  br label %83

9:                                                ; preds = %1
  call void @llvm.lifetime.start.p0(i64 8, ptr %3) #17
  %10 = load ptr, ptr %2, align 8
  %11 = getelementptr inbounds nuw %"struct.nanobind::detail::ndarray_handle", ptr %10, i32 0, i32 1
  %12 = call noundef i64 @_ZNSt13__atomic_baseImEmmEi(ptr noundef nonnull align 8 dereferenceable(8) %11, i32 noundef 0) #17
  store i64 %12, ptr %3, align 8
  %13 = load i64, ptr %3, align 8
  %14 = icmp eq i64 %13, 0
  br i1 %14, label %15, label %16

15:                                               ; preds = %9
  call void @_ZN8nanobind6detail16fail_unspecifiedEv() #18
  unreachable

16:                                               ; preds = %9
  %17 = load i64, ptr %3, align 8
  %18 = icmp eq i64 %17, 1
  br i1 %18, label %19, label %81

19:                                               ; preds = %16
  call void @llvm.lifetime.start.p0(i64 4, ptr %4) #17
  call void @_ZN8nanobind18gil_scoped_acquireC2Ev(ptr noundef nonnull align 4 dereferenceable(4) %4) #17
  %20 = load ptr, ptr %2, align 8
  %21 = getelementptr inbounds nuw %"struct.nanobind::detail::ndarray_handle", ptr %20, i32 0, i32 2
  %22 = load ptr, ptr %21, align 8
  invoke void @_ZL11_Py_XDECREFP7_object(ptr noundef %22)
          to label %23 unwind label %84

23:                                               ; preds = %19
  %24 = load ptr, ptr %2, align 8
  %25 = getelementptr inbounds nuw %"struct.nanobind::detail::ndarray_handle", ptr %24, i32 0, i32 3
  %26 = load ptr, ptr %25, align 8
  invoke void @_ZL11_Py_XDECREFP7_object(ptr noundef %26)
          to label %27 unwind label %84

27:                                               ; preds = %23
  call void @llvm.lifetime.start.p0(i64 8, ptr %5) #17
  %28 = load ptr, ptr %2, align 8
  %29 = getelementptr inbounds nuw %"struct.nanobind::detail::ndarray_handle", ptr %28, i32 0, i32 0
  %30 = load ptr, ptr %29, align 8
  store ptr %30, ptr %5, align 8
  %31 = load ptr, ptr %2, align 8
  %32 = getelementptr inbounds nuw %"struct.nanobind::detail::ndarray_handle", ptr %31, i32 0, i32 4
  %33 = load i8, ptr %32, align 8, !range !3, !noundef !4
  %34 = trunc i8 %33 to i1
  br i1 %34, label %35, label %44

35:                                               ; preds = %27
  %36 = load ptr, ptr %5, align 8
  %37 = getelementptr inbounds nuw %"struct.nanobind::detail::managed_dltensor", ptr %36, i32 0, i32 0
  %38 = getelementptr inbounds nuw %"struct.nanobind::dlpack::dltensor", ptr %37, i32 0, i32 4
  %39 = load ptr, ptr %38, align 8
  invoke void @PyMem_Free(ptr noundef %39)
          to label %40 unwind label %84

40:                                               ; preds = %35
  %41 = load ptr, ptr %5, align 8
  %42 = getelementptr inbounds nuw %"struct.nanobind::detail::managed_dltensor", ptr %41, i32 0, i32 0
  %43 = getelementptr inbounds nuw %"struct.nanobind::dlpack::dltensor", ptr %42, i32 0, i32 4
  store ptr null, ptr %43, align 8
  br label %44

44:                                               ; preds = %40, %27
  %45 = load ptr, ptr %2, align 8
  %46 = getelementptr inbounds nuw %"struct.nanobind::detail::ndarray_handle", ptr %45, i32 0, i32 5
  %47 = load i8, ptr %46, align 1, !range !3, !noundef !4
  %48 = trunc i8 %47 to i1
  br i1 %48, label %49, label %58

49:                                               ; preds = %44
  %50 = load ptr, ptr %5, align 8
  %51 = getelementptr inbounds nuw %"struct.nanobind::detail::managed_dltensor", ptr %50, i32 0, i32 0
  %52 = getelementptr inbounds nuw %"struct.nanobind::dlpack::dltensor", ptr %51, i32 0, i32 5
  %53 = load ptr, ptr %52, align 8
  invoke void @PyMem_Free(ptr noundef %53)
          to label %54 unwind label %84

54:                                               ; preds = %49
  %55 = load ptr, ptr %5, align 8
  %56 = getelementptr inbounds nuw %"struct.nanobind::detail::managed_dltensor", ptr %55, i32 0, i32 0
  %57 = getelementptr inbounds nuw %"struct.nanobind::dlpack::dltensor", ptr %56, i32 0, i32 5
  store ptr null, ptr %57, align 8
  br label %58

58:                                               ; preds = %54, %44
  %59 = load ptr, ptr %2, align 8
  %60 = getelementptr inbounds nuw %"struct.nanobind::detail::ndarray_handle", ptr %59, i32 0, i32 6
  %61 = load i8, ptr %60, align 2, !range !3, !noundef !4
  %62 = trunc i8 %61 to i1
  br i1 %62, label %63, label %75

63:                                               ; preds = %58
  %64 = load ptr, ptr %5, align 8
  %65 = getelementptr inbounds nuw %"struct.nanobind::detail::managed_dltensor", ptr %64, i32 0, i32 2
  %66 = load ptr, ptr %65, align 8
  %67 = icmp ne ptr %66, null
  br i1 %67, label %68, label %74

68:                                               ; preds = %63
  %69 = load ptr, ptr %5, align 8
  %70 = getelementptr inbounds nuw %"struct.nanobind::detail::managed_dltensor", ptr %69, i32 0, i32 2
  %71 = load ptr, ptr %70, align 8
  %72 = load ptr, ptr %5, align 8
  invoke void %71(ptr noundef %72)
          to label %73 unwind label %84

73:                                               ; preds = %68
  br label %74

74:                                               ; preds = %73, %63
  br label %78

75:                                               ; preds = %58
  %76 = load ptr, ptr %5, align 8
  invoke void @PyMem_Free(ptr noundef %76)
          to label %77 unwind label %84

77:                                               ; preds = %75
  br label %78

78:                                               ; preds = %77, %74
  %79 = load ptr, ptr %2, align 8
  invoke void @PyMem_Free(ptr noundef %79)
          to label %80 unwind label %84

80:                                               ; preds = %78
  call void @llvm.lifetime.end.p0(i64 8, ptr %5) #17
  call void @_ZN8nanobind18gil_scoped_acquireD2Ev(ptr noundef nonnull align 4 dereferenceable(4) %4) #17
  call void @llvm.lifetime.end.p0(i64 4, ptr %4) #17
  br label %81

81:                                               ; preds = %80, %16
  br label %82

82:                                               ; preds = %81
  call void @llvm.lifetime.end.p0(i64 8, ptr %3) #17
  br label %83

83:                                               ; preds = %82, %8
  ret void

84:                                               ; preds = %78, %75, %68, %49, %35, %23, %19
  %85 = landingpad { ptr, i32 }
          catch ptr null
  %86 = extractvalue { ptr, i32 } %85, 0
  call void @__clang_call_terminate(ptr %86) #18
  unreachable
}