; Function Attrs: mustprogress nounwind uwtable
define void @_ZN8nanobind6detail15ndarray_dec_refEPNS0_14ndarray_handleE(ptr noundef %0) local_unnamed_addr #0 personality ptr @__gxx_personality_v0 {
  %.not = icmp eq ptr %0, null
  br i1 %.not, label %_ZN8nanobind18gil_scoped_acquireD2Ev.exit, label %2

2:                                                ; preds = %1
  %3 = getelementptr inbounds nuw i8, ptr %0, i64 8
  %4 = atomicrmw sub ptr %3, i64 1 seq_cst, align 8
  switch i64 %4, label %_ZN8nanobind18gil_scoped_acquireD2Ev.exit [
    i64 0, label %5
    i64 1, label %6
  ]

5:                                                ; preds = %2
  tail call void @_ZN8nanobind6detail16fail_unspecifiedEv() #20
  unreachable

6:                                                ; preds = %2
  %7 = invoke i32 @PyGILState_Ensure()
          to label %_ZN8nanobind18gil_scoped_acquireC2Ev.exit unwind label %8

8:                                                ; preds = %6
  %9 = landingpad { ptr, i32 }
          catch ptr null
  %10 = extractvalue { ptr, i32 } %9, 0
  tail call void @__clang_call_terminate(ptr %10) #20
  unreachable

_ZN8nanobind18gil_scoped_acquireC2Ev.exit:        ; preds = %6
  %11 = getelementptr inbounds nuw i8, ptr %0, i64 16
  %12 = load ptr, ptr %11, align 8
  %.not.i = icmp eq ptr %12, null
  br i1 %.not.i, label %_ZL11_Py_XDECREFP7_object.exit, label %13

13:                                               ; preds = %_ZN8nanobind18gil_scoped_acquireC2Ev.exit
  %14 = load i64, ptr %12, align 8
  %15 = add nsw i64 %14, -1
  store i64 %15, ptr %12, align 8
  %.not.i.i = icmp eq i64 %15, 0
  br i1 %.not.i.i, label %16, label %_ZL11_Py_XDECREFP7_object.exit

16:                                               ; preds = %13
  invoke void @_Py_Dealloc(ptr noundef nonnull %12)
          to label %_ZL11_Py_XDECREFP7_object.exit unwind label %53

_ZL11_Py_XDECREFP7_object.exit:                   ; preds = %13, %_ZN8nanobind18gil_scoped_acquireC2Ev.exit, %16
  %17 = getelementptr inbounds nuw i8, ptr %0, i64 24
  %18 = load ptr, ptr %17, align 8
  %.not.i21 = icmp eq ptr %18, null
  br i1 %.not.i21, label %_ZL11_Py_XDECREFP7_object.exit24, label %19

19:                                               ; preds = %_ZL11_Py_XDECREFP7_object.exit
  %20 = load i64, ptr %18, align 8
  %21 = add nsw i64 %20, -1
  store i64 %21, ptr %18, align 8
  %.not.i.i22 = icmp eq i64 %21, 0
  br i1 %.not.i.i22, label %22, label %_ZL11_Py_XDECREFP7_object.exit24

22:                                               ; preds = %19
  invoke void @_Py_Dealloc(ptr noundef nonnull %18)
          to label %_ZL11_Py_XDECREFP7_object.exit24 unwind label %53

_ZL11_Py_XDECREFP7_object.exit24:                 ; preds = %19, %_ZL11_Py_XDECREFP7_object.exit, %22
  %23 = load ptr, ptr %0, align 8
  %24 = getelementptr inbounds nuw i8, ptr %0, i64 32
  %25 = load i8, ptr %24, align 8, !range !13, !noundef !14
  %26 = trunc nuw i8 %25 to i1
  br i1 %26, label %27, label %31

27:                                               ; preds = %_ZL11_Py_XDECREFP7_object.exit24
  %28 = getelementptr inbounds nuw i8, ptr %23, i64 24
  %29 = load ptr, ptr %28, align 8
  invoke void @PyMem_Free(ptr noundef %29)
          to label %30 unwind label %53

30:                                               ; preds = %27
  store ptr null, ptr %28, align 8
  br label %31

31:                                               ; preds = %30, %_ZL11_Py_XDECREFP7_object.exit24
  %32 = getelementptr inbounds nuw i8, ptr %0, i64 33
  %33 = load i8, ptr %32, align 1, !range !13, !noundef !14
  %34 = trunc nuw i8 %33 to i1
  br i1 %34, label %35, label %39

35:                                               ; preds = %31
  %36 = getelementptr inbounds nuw i8, ptr %23, i64 32
  %37 = load ptr, ptr %36, align 8
  invoke void @PyMem_Free(ptr noundef %37)
          to label %38 unwind label %53

38:                                               ; preds = %35
  store ptr null, ptr %36, align 8
  br label %39

39:                                               ; preds = %38, %31
  %40 = getelementptr inbounds nuw i8, ptr %0, i64 34
  %41 = load i8, ptr %40, align 2, !range !13, !noundef !14
  %42 = trunc nuw i8 %41 to i1
  br i1 %42, label %43, label %47

43:                                               ; preds = %39
  %44 = getelementptr inbounds nuw i8, ptr %23, i64 56
  %45 = load ptr, ptr %44, align 8
  %.not20 = icmp eq ptr %45, null
  br i1 %.not20, label %48, label %46

46:                                               ; preds = %43
  invoke void %45(ptr noundef nonnull %23)
          to label %48 unwind label %53

47:                                               ; preds = %39
  invoke void @PyMem_Free(ptr noundef %23)
          to label %48 unwind label %53

48:                                               ; preds = %47, %43, %46
  invoke void @PyMem_Free(ptr noundef nonnull %0)
          to label %49 unwind label %53

49:                                               ; preds = %48
  invoke void @PyGILState_Release(i32 noundef %7)
          to label %_ZN8nanobind18gil_scoped_acquireD2Ev.exit unwind label %50

50:                                               ; preds = %49
  %51 = landingpad { ptr, i32 }
          catch ptr null
  %52 = extractvalue { ptr, i32 } %51, 0
  tail call void @__clang_call_terminate(ptr %52) #20
  unreachable

_ZN8nanobind18gil_scoped_acquireD2Ev.exit:        ; preds = %49, %2, %1
  ret void

53:                                               ; preds = %22, %16, %48, %47, %46, %35, %27
  %54 = landingpad { ptr, i32 }
          catch ptr null
  %55 = extractvalue { ptr, i32 } %54, 0
  tail call void @__clang_call_terminate(ptr %55) #20
  unreachable
}